; Function Attrs: mustprogress uwtable
define hidden void @_ZNK11DummySource8descr_ofEv(ptr dead_on_unwind noalias writable writeonly sret(%"class.cv::util::variant.7") align 8 captures(none) initializes((0, 25), (32, 56)) %0, ptr noundef nonnull align 8 dereferenceable(184) %1) unnamed_addr #3 align 2 personality ptr @__gxx_personality_v0 {
_ZN2cv8GMatDescD2Ev.exit:
  %2 = alloca %"struct.cv::GMatDesc", align 8
  call void @llvm.lifetime.start.p0(i64 48, ptr nonnull %2) #37
  %3 = getelementptr inbounds nuw i8, ptr %1, i64 32
  call void @_ZN2cv8descr_ofERKNS_3MatE(ptr dead_on_unwind nonnull writable sret(%"struct.cv::GMatDesc") align 8 %2, ptr noundef nonnull align 8 dereferenceable(96) %3)
  store i64 1, ptr %0, align 8, !tbaa !53
  %4 = getelementptr inbounds nuw i8, ptr %0, i64 8
  call void @llvm.memcpy.p0.p0.i64(ptr noundef nonnull align 8 dereferenceable(48) %4, ptr noundef nonnull align 8 dereferenceable(48) %2, i64 17, i1 false)
  %5 = getelementptr inbounds nuw i8, ptr %0, i64 32
  %6 = getelementptr inbounds nuw i8, ptr %2, i64 24
  %7 = load ptr, ptr %6, align 8, !tbaa !55
  store ptr %7, ptr %5, align 8, !tbaa !55
  %8 = getelementptr inbounds nuw i8, ptr %0, i64 40
  %9 = getelementptr inbounds nuw i8, ptr %2, i64 32
  %10 = load ptr, ptr %9, align 8, !tbaa !57
  store ptr %10, ptr %8, align 8, !tbaa !57
  %11 = getelementptr inbounds nuw i8, ptr %0, i64 48
  %12 = getelementptr inbounds nuw i8, ptr %2, i64 40
  %13 = load ptr, ptr %12, align 8, !tbaa !58
  store ptr %13, ptr %11, align 8, !tbaa !58
  call void @llvm.lifetime.end.p0(i64 48, ptr nonnull %2) #37
  ret void
}